; Function Attrs: nounwind uwtable
define range(i64 -1, -9223372036854775808) i64 @H5Sdecode(ptr noundef %0) local_unnamed_addr #0 {
  %2 = alloca ptr, align 8
  %3 = alloca %struct.H5CX_node_t, align 8
  store ptr %0, ptr %2, align 8, !tbaa !51
  call void @llvm.lifetime.start.p0(i64 480, ptr nonnull %3) #10
  call void @llvm.memset.p0.i64(ptr noundef nonnull align 8 dereferenceable(480) %3, i8 0, i64 480, i1 false)
  %4 = load i8, ptr @H5_libinit_g, align 1, !tbaa !3, !range !7, !noundef !8
  %5 = trunc nuw i8 %4 to i1
  %6 = load i8, ptr @H5_libterm_g, align 1, !range !7
  %7 = trunc nuw i8 %6 to i1
  %8 = select i1 %5, i1 true, i1 %7
  br i1 %8, label %16, label %9, !prof !9

9:                                                ; preds = %1
  %10 = tail call i32 @H5_init_library() #10
  %11 = icmp slt i32 %10, 0
  br i1 %11, label %12, label %._crit_edge, !prof !31

._crit_edge:                                      ; preds = %9
  %.pre = load i8, ptr @H5_libterm_g, align 1, !range !7
  br label %16

12:                                               ; preds = %9
  %13 = load i64, ptr @H5E_FUNC_g, align 8, !tbaa !10
  %14 = load i64, ptr @H5E_CANTINIT_g, align 8, !tbaa !10
  %15 = tail call i32 (ptr, ptr, i32, i64, i64, ptr, ...) @H5E_printf_stack(ptr noundef nonnull @.str.3, ptr noundef nonnull @__func__.H5Sdecode, i32 noundef 1537, i64 noundef %13, i64 noundef %14, ptr noundef nonnull @.str.11) #10
  br label %.thread21

16:                                               ; preds = %._crit_edge, %1
  %17 = phi i8 [ %.pre, %._crit_edge ], [ %6, %1 ]
  %18 = load i8, ptr @H5S_init_g, align 1, !tbaa !3, !range !7, !noundef !8
  %19 = trunc nuw i8 %18 to i1
  %20 = trunc nuw i8 %17 to i1
  %21 = select i1 %19, i1 true, i1 %20
  br i1 %21, label %29, label %22, !prof !9

22:                                               ; preds = %16
  store i8 1, ptr @H5S_init_g, align 1, !tbaa !3
  %23 = tail call i32 @H5S__init_package()
  %24 = icmp slt i32 %23, 0
  br i1 %24, label %25, label %29, !prof !33

25:                                               ; preds = %22
  store i8 0, ptr @H5S_init_g, align 1, !tbaa !3
  %26 = load i64, ptr @H5E_FUNC_g, align 8, !tbaa !10
  %27 = load i64, ptr @H5E_CANTINIT_g, align 8, !tbaa !10
  %28 = tail call i32 (ptr, ptr, i32, i64, i64, ptr, ...) @H5E_printf_stack(ptr noundef nonnull @.str.3, ptr noundef nonnull @__func__.H5Sdecode, i32 noundef 1537, i64 noundef %26, i64 noundef %27, ptr noundef nonnull @.str.4) #10
  br label %.thread21

29:                                               ; preds = %16, %22
  %30 = call i32 @H5CX_push(ptr noundef nonnull %3) #10
  %31 = icmp slt i32 %30, 0
  br i1 %31, label %32, label %36, !prof !31

32:                                               ; preds = %29
  %33 = load i64, ptr @H5E_FUNC_g, align 8, !tbaa !10
  %34 = load i64, ptr @H5E_CANTSET_g, align 8, !tbaa !10
  %35 = call i32 (ptr, ptr, i32, i64, i64, ptr, ...) @H5E_printf_stack(ptr noundef nonnull @.str.3, ptr noundef nonnull @__func__.H5Sdecode, i32 noundef 1537, i64 noundef %33, i64 noundef %34, ptr noundef nonnull @.str.12) #10
  br label %.thread21

36:                                               ; preds = %29
  %37 = call i32 @H5E_clear_stack() #10
  %38 = icmp eq ptr %0, null
  br i1 %38, label %39, label %43, !prof !34

39:                                               ; preds = %36
  %40 = load i64, ptr @H5E_ARGS_g, align 8, !tbaa !10
  %41 = load i64, ptr @H5E_BADVALUE_g, align 8, !tbaa !10
  %42 = call i32 (ptr, ptr, i32, i64, i64, ptr, ...) @H5E_printf_stack(ptr noundef nonnull @.str.3, ptr noundef nonnull @__func__.H5Sdecode, i32 noundef 1540, i64 noundef %40, i64 noundef %41, ptr noundef nonnull @.str.52) #10
  br label %.thread27

43:                                               ; preds = %36
  %44 = call ptr @H5S_decode(ptr noundef nonnull %2)
  %45 = icmp eq ptr %44, null
  br i1 %45, label %46, label %50, !prof !34

46:                                               ; preds = %43
  %47 = load i64, ptr @H5E_DATASPACE_g, align 8, !tbaa !10
  %48 = load i64, ptr @H5E_CANTDECODE_g, align 8, !tbaa !10
  %49 = call i32 (ptr, ptr, i32, i64, i64, ptr, ...) @H5E_printf_stack(ptr noundef nonnull @.str.3, ptr noundef nonnull @__func__.H5Sdecode, i32 noundef 1543, i64 noundef %47, i64 noundef %48, ptr noundef nonnull @.str.53) #10
  br label %.thread27

50:                                               ; preds = %43
  %51 = call i64 @H5I_register(i32 noundef 4, ptr noundef nonnull %44, i1 noundef zeroext true) #10
  %52 = icmp slt i64 %51, 0
  br i1 %52, label %53, label %58, !prof !34

53:                                               ; preds = %50
  %54 = load i64, ptr @H5E_DATASPACE_g, align 8, !tbaa !10
  %55 = load i64, ptr @H5E_CANTREGISTER_g, align 8, !tbaa !10
  %56 = call i32 (ptr, ptr, i32, i64, i64, ptr, ...) @H5E_printf_stack(ptr noundef nonnull @.str.3, ptr noundef nonnull @__func__.H5Sdecode, i32 noundef 1547, i64 noundef %54, i64 noundef %55, ptr noundef nonnull @.str.54) #10
  br label %.thread27

.thread27:                                        ; preds = %53, %46, %39
  %57 = call i32 @H5CX_pop(i1 noundef zeroext true) #10
  br label %.thread21

58:                                               ; preds = %50
  %59 = call i32 @H5CX_pop(i1 noundef zeroext true) #10
  br label %61

.thread21:                                        ; preds = %32, %25, %12, %.thread27
  %60 = call i32 @H5E_dump_api_stack() #10
  br label %61

61:                                               ; preds = %58, %.thread21
  %.0101624 = phi i64 [ -1, %.thread21 ], [ %51, %58 ]
  call void @llvm.lifetime.end.p0(i64 480, ptr nonnull %3) #10
  ret i64 %.0101624
}